target datalayout = "e-m:e-p270:32:32-p271:32:32-p272:64:64-i64:64-i128:128-f80:128-n8:16:32:64-S128"
target triple = "x86_64-pc-linux-gnu"

%struct.cbs_st = type { ptr, i64 }
%struct.ssl_st = type { i32, i16, i16, ptr, ptr, ptr, ptr, ptr, i32, i32, ptr, ptr, i32, i32, ptr, ptr, ptr, ptr, ptr, ptr, ptr, ptr, i32, i32, [32 x i8], ptr, ptr, ptr, ptr, ptr, ptr, ptr, i64, %struct.crypto_ex_data_st, ptr, i32, i32, i32, i32, i16, ptr, i32, i64, ptr, ptr, ptr, ptr, ptr, ptr, i32, i32, ptr, ptr, i8, i8, i32 }
%struct.crypto_ex_data_st = type { ptr }
%struct.ssl3_state_st = type { [8 x i8], [8 x i8], [32 x i8], [32 x i8], i8, i8, %struct.ssl3_buffer_st, %struct.ssl3_buffer_st, %struct.ssl3_record_st, i8, i32, i32, i32, i32, ptr, ptr, %struct.env_md_ctx_st, %struct.env_md_ctx_st, i8, i32, [2 x i8], i32, i8, i8, ptr, ptr, ptr, %struct.anon, [64 x i8], i8, [64 x i8], i8, i32, i32, ptr, i64, ptr, i64, i8, [64 x i8] }
%struct.ssl3_buffer_st = type { ptr, i16, i16, i16 }
%struct.ssl3_record_st = type { i8, i16, ptr }
%struct.env_md_ctx_st = type { ptr, ptr, ptr, ptr }
%struct.anon = type { [64 x i8], i32, [64 x i8], i32, i64, i32, ptr, i32, i32, %union.anon, %union.anon.0, i8, i32, ptr, ptr, i64, ptr, i8, i8, i8, i8, i32, i8, ptr, i64, i8, ptr, i8, i8, i8, %struct.ssl_ecdh_ctx_st, ptr, i16 }
%union.anon = type { i32 }
%union.anon.0 = type { i16 }
%struct.ssl_ecdh_ctx_st = type { ptr, ptr }

@.str = private unnamed_addr constant [116 x i8] c"generated/home/dtcxzyw/WorkSpace/Projects/compilers/llvm-opt-benchmark/bench/libquic/libquic/boringssl/ssl/t1_lib.c\00", align 1

; Function Attrs: nounwind uwtable
define internal i32 @ext_alpn_parse_serverhello(ptr noundef %0, ptr noundef %1, ptr noundef %2) #0 {
  %4 = alloca i32, align 4
  %5 = alloca ptr, align 8
  %6 = alloca ptr, align 8
  %7 = alloca ptr, align 8
  %8 = alloca %struct.cbs_st, align 8
  %9 = alloca %struct.cbs_st, align 8
  %10 = alloca i32, align 4
  store ptr %0, ptr %5, align 8, !tbaa !69
  store ptr %1, ptr %6, align 8, !tbaa !55
  store ptr %2, ptr %7, align 8, !tbaa !52
  %11 = load ptr, ptr %7, align 8, !tbaa !52
  %12 = icmp eq ptr %11, null
  br i1 %12, label %13, label %14

13:                                               ; preds = %3
  store i32 1, ptr %4, align 4
  br label %56

14:                                               ; preds = %3
  %15 = load ptr, ptr %5, align 8, !tbaa !69
  %16 = getelementptr inbounds nuw %struct.ssl_st, ptr %15, i32 0, i32 14
  %17 = load ptr, ptr %16, align 8, !tbaa !75
  %18 = getelementptr inbounds nuw %struct.ssl3_state_st, ptr %17, i32 0, i32 33
  %19 = load i32, ptr %18, align 8, !tbaa !191
  %20 = icmp ne i32 %19, 0
  br i1 %20, label %21, label %23

21:                                               ; preds = %14
  %22 = load ptr, ptr %6, align 8, !tbaa !55
  store i8 47, ptr %22, align 1, !tbaa !103
  call void @ERR_put_error(i32 noundef 16, i32 noundef 0, i32 noundef 170, ptr noundef @.str, i32 noundef 1407)
  store i32 0, ptr %4, align 4
  br label %56

23:                                               ; preds = %14
  call void @llvm.lifetime.start.p0(i64 16, ptr %8) #8
  call void @llvm.lifetime.start.p0(i64 16, ptr %9) #8
  %24 = load ptr, ptr %7, align 8, !tbaa !52
  %25 = call i32 @CBS_get_u16_length_prefixed(ptr noundef %24, ptr noundef %8)
  %26 = icmp ne i32 %25, 0
  br i1 %26, label %27, label %40

27:                                               ; preds = %23
  %28 = load ptr, ptr %7, align 8, !tbaa !52
  %29 = call i64 @CBS_len(ptr noundef %28)
  %30 = icmp ne i64 %29, 0
  br i1 %30, label %40, label %31

31:                                               ; preds = %27
  %32 = call i32 @CBS_get_u8_length_prefixed(ptr noundef %8, ptr noundef %9)
  %33 = icmp ne i32 %32, 0
  br i1 %33, label %34, label %40

34:                                               ; preds = %31
  %35 = call i64 @CBS_len(ptr noundef %9)
  %36 = icmp eq i64 %35, 0
  br i1 %36, label %40, label %37

37:                                               ; preds = %34
  %38 = call i64 @CBS_len(ptr noundef %8)
  %39 = icmp ne i64 %38, 0
  br i1 %39, label %40, label %41

40:                                               ; preds = %37, %34, %31, %27, %23
  store i32 0, ptr %4, align 4
  store i32 1, ptr %10, align 4
  br label %55

41:                                               ; preds = %37
  %42 = load ptr, ptr %5, align 8, !tbaa !69
  %43 = getelementptr inbounds nuw %struct.ssl_st, ptr %42, i32 0, i32 14
  %44 = load ptr, ptr %43, align 8, !tbaa !75
  %45 = getelementptr inbounds nuw %struct.ssl3_state_st, ptr %44, i32 0, i32 36
  %46 = load ptr, ptr %5, align 8, !tbaa !69
  %47 = getelementptr inbounds nuw %struct.ssl_st, ptr %46, i32 0, i32 14
  %48 = load ptr, ptr %47, align 8, !tbaa !75
  %49 = getelementptr inbounds nuw %struct.ssl3_state_st, ptr %48, i32 0, i32 37
  %50 = call i32 @CBS_stow(ptr noundef %9, ptr noundef %45, ptr noundef %49)
  %51 = icmp ne i32 %50, 0
  br i1 %51, label %54, label %52

52:                                               ; preds = %41
  %53 = load ptr, ptr %6, align 8, !tbaa !55
  store i8 80, ptr %53, align 1, !tbaa !103
  store i32 0, ptr %4, align 4
  store i32 1, ptr %10, align 4
  br label %55

54:                                               ; preds = %41
  store i32 1, ptr %4, align 4
  store i32 1, ptr %10, align 4
  br label %55

55:                                               ; preds = %54, %52, %40
  call void @llvm.lifetime.end.p0(i64 16, ptr %9) #8
  call void @llvm.lifetime.end.p0(i64 16, ptr %8) #8
  br label %56

56:                                               ; preds = %55, %21, %13
  %57 = load i32, ptr %4, align 4
  ret i32 %57
}