; Function Attrs: nounwind uwtable
define internal range(i32 0, 2) i32 @ext_alpn_parse_serverhello(ptr noundef readonly captures(none) %0, ptr noundef writeonly captures(none) %1, ptr noundef %2) #0 {
  %4 = alloca %struct.cbs_st, align 8
  %5 = alloca %struct.cbs_st, align 8
  %6 = icmp eq ptr %2, null
  br i1 %6, label %31, label %7

7:                                                ; preds = %3
  %8 = getelementptr inbounds nuw i8, ptr %0, i64 80
  %9 = load ptr, ptr %8, align 8, !tbaa !58
  %10 = getelementptr inbounds nuw i8, ptr %9, i64 728
  %11 = load i32, ptr %10, align 8, !tbaa !160
  %.not = icmp eq i32 %11, 0
  br i1 %.not, label %13, label %12

12:                                               ; preds = %7
  store i8 47, ptr %1, align 1, !tbaa !90
  tail call void @ERR_put_error(i32 noundef 16, i32 noundef 0, i32 noundef 170, ptr noundef nonnull @.str, i32 noundef 1407) #21
  br label %31

13:                                               ; preds = %7
  call void @llvm.lifetime.start.p0(i64 16, ptr nonnull %4) #21
  call void @llvm.lifetime.start.p0(i64 16, ptr nonnull %5) #21
  %14 = call i32 @CBS_get_u16_length_prefixed(ptr noundef nonnull %2, ptr noundef nonnull %4) #21
  %.not9 = icmp eq i32 %14, 0
  br i1 %.not9, label %30, label %15

15:                                               ; preds = %13
  %16 = call i64 @CBS_len(ptr noundef nonnull %2) #21
  %.not10 = icmp eq i64 %16, 0
  br i1 %.not10, label %17, label %30

17:                                               ; preds = %15
  %18 = call i32 @CBS_get_u8_length_prefixed(ptr noundef nonnull %4, ptr noundef nonnull %5) #21
  %.not11 = icmp eq i32 %18, 0
  br i1 %.not11, label %30, label %19

19:                                               ; preds = %17
  %20 = call i64 @CBS_len(ptr noundef nonnull %5) #21
  %21 = icmp eq i64 %20, 0
  br i1 %21, label %30, label %22

22:                                               ; preds = %19
  %23 = call i64 @CBS_len(ptr noundef nonnull %4) #21
  %.not12 = icmp eq i64 %23, 0
  br i1 %.not12, label %24, label %30

24:                                               ; preds = %22
  %25 = load ptr, ptr %8, align 8, !tbaa !58
  %26 = getelementptr inbounds nuw i8, ptr %25, i64 752
  %27 = getelementptr inbounds nuw i8, ptr %25, i64 760
  %28 = call i32 @CBS_stow(ptr noundef nonnull %5, ptr noundef nonnull %26, ptr noundef nonnull %27) #21
  %.not13 = icmp eq i32 %28, 0
  br i1 %.not13, label %29, label %30

29:                                               ; preds = %24
  store i8 80, ptr %1, align 1, !tbaa !90
  br label %30

30:                                               ; preds = %24, %13, %15, %17, %19, %22, %29
  %.1 = phi i32 [ 0, %29 ], [ 0, %22 ], [ 0, %19 ], [ 0, %17 ], [ 0, %15 ], [ 0, %13 ], [ 1, %24 ]
  call void @llvm.lifetime.end.p0(i64 16, ptr nonnull %5) #21
  call void @llvm.lifetime.end.p0(i64 16, ptr nonnull %4) #21
  br label %31

31:                                               ; preds = %3, %30, %12
  %.0 = phi i32 [ 0, %12 ], [ %.1, %30 ], [ 1, %3 ]
  ret i32 %.0
}